target datalayout = "e-m:e-p270:32:32-p271:32:32-p272:64:64-i64:64-i128:128-f80:128-n8:16:32:64-S128"
target triple = "x86_64-unknown-linux-gnu"

; Function Attrs: nounwind sspstrong uwtable
define dso_local void @tcg_gen_rotri_vec(i32 noundef %vece, ptr noundef %r, ptr noundef %a, i64 noundef %i) #0 {
entry:
  %vece.addr = alloca i32, align 4
  %r.addr = alloca ptr, align 8
  %a.addr = alloca ptr, align 8
  %i.addr = alloca i64, align 8
  %bits = alloca i32, align 4
  store i32 %vece, ptr %vece.addr, align 4
  store ptr %r, ptr %r.addr, align 8
  store ptr %a, ptr %a.addr, align 8
  store i64 %i, ptr %i.addr, align 8
  %0 = load i32, ptr %vece.addr, align 4
  %shl = shl i32 8, %0
  store i32 %shl, ptr %bits, align 4
  br label %do.body

do.body:                                          ; preds = %entry
  %1 = load i64, ptr %i.addr, align 8
  %cmp = icmp sge i64 %1, 0
  br i1 %cmp, label %land.lhs.true, label %if.then

land.lhs.true:                                    ; preds = %do.body
  %2 = load i64, ptr %i.addr, align 8
  %3 = load i32, ptr %bits, align 4
  %conv = sext i32 %3 to i64
  %cmp1 = icmp slt i64 %2, %conv
  br i1 %cmp1, label %if.end, label %if.then

if.then:                                          ; preds = %land.lhs.true, %do.body
  unreachable

if.end:                                           ; preds = %land.lhs.true
  br label %do.end

do.end:                                           ; preds = %if.end
  %4 = load i32, ptr %vece.addr, align 4
  %5 = load ptr, ptr %r.addr, align 8
  %6 = load ptr, ptr %a.addr, align 8
  %7 = load i64, ptr %i.addr, align 8
  %sub = sub i64 0, %7
  %8 = load i32, ptr %bits, align 4
  %sub3 = sub i32 %8, 1
  %conv4 = sext i32 %sub3 to i64
  %and = and i64 %sub, %conv4
  call void @do_shifti(i32 noundef 180, i32 noundef %4, ptr noundef %5, ptr noundef %6, i64 noundef %and)
  ret void
}