; Function Attrs: nounwind sspstrong uwtable
define dso_local void @tcg_gen_rotri_vec(i32 noundef %vece, ptr noundef %r, ptr noundef %a, i64 noundef %i) local_unnamed_addr #0 {
entry:
  %shl = shl i32 8, %vece
  %cmp = icmp sgt i64 %i, -1
  tail call void @llvm.assume(i1 %cmp)
  %conv = sext i32 %shl to i64
  %cmp1 = icmp slt i64 %i, %conv
  tail call void @llvm.assume(i1 %cmp1)
  %sub = sub nsw i64 0, %i
  %sub3 = add i32 %shl, -1
  %conv4 = sext i32 %sub3 to i64
  %and = and i64 %sub, %conv4
  tail call fastcc void @do_shifti(i32 noundef 180, i32 noundef %vece, ptr noundef %r, ptr noundef %a, i64 noundef %and)
  ret void
}